target datalayout = "e-m:e-p270:32:32-p271:32:32-p272:64:64-i64:64-i128:128-f80:128-n8:16:32:64-S128"
target triple = "x86_64-unknown-linux-gnu"

%"class.icu_75::ReadArray1D" = type { ptr }
%"class.icu_75::ReadArray2D" = type { ptr }
%"struct.icu_75::LSTMData" = type { ptr, i32, ptr, %"class.icu_75::ConstArray2D", %"class.icu_75::ConstArray2D", %"class.icu_75::ConstArray2D", %"class.icu_75::ConstArray1D", %"class.icu_75::ConstArray2D", %"class.icu_75::ConstArray2D", %"class.icu_75::ConstArray1D", %"class.icu_75::ConstArray2D", %"class.icu_75::ConstArray1D", ptr }
%"class.icu_75::ConstArray2D" = type { %"class.icu_75::ReadArray2D", ptr, i32, i32 }
%"class.icu_75::ConstArray1D" = type <{ %"class.icu_75::ReadArray1D", ptr, i32, [4 x i8] }>
%"class.icu_75::Vectorizer" = type { ptr, ptr }

@_ZTVN6icu_7510VectorizerE = unnamed_addr constant { [5 x ptr] } { [5 x ptr] [ptr null, ptr @_ZTIN6icu_7510VectorizerE, ptr @_ZN6icu_7510VectorizerD1Ev, ptr @_ZN6icu_7510VectorizerD0Ev, ptr @__cxa_pure_virtual] }, align 8

; Function Attrs: mustprogress nounwind uwtable
define linkonce_odr void @_ZN6icu_7510VectorizerC2EP10UHashtable(ptr noundef nonnull align 8 dereferenceable(16) %this, ptr noundef %dict) unnamed_addr #0 comdat align 2 {
entry:
  %this.addr = alloca ptr, align 8
  %dict.addr = alloca ptr, align 8
  store ptr %this, ptr %this.addr, align 8
  store ptr %dict, ptr %dict.addr, align 8
  %this1 = load ptr, ptr %this.addr, align 8
  store ptr getelementptr inbounds ({ [5 x ptr] }, ptr @_ZTVN6icu_7510VectorizerE, i32 0, i32 0, i32 2), ptr %this1, align 8
  %fDict = getelementptr inbounds %"class.icu_75::Vectorizer", ptr %this1, i32 0, i32 1
  %0 = load ptr, ptr %dict.addr, align 8
  store ptr %0, ptr %fDict, align 8
  ret void
}

; Function Attrs: mustprogress nounwind uwtable
define linkonce_odr void @_ZN6icu_7525GraphemeClusterVectorizerC2EP10UHashtable(ptr noundef nonnull align 8 dereferenceable(16) %this, ptr noundef %dict) unnamed_addr #0 comdat align 2 {
entry:
  %this.addr = alloca ptr, align 8
  %dict.addr = alloca ptr, align 8
  store ptr %this, ptr %this.addr, align 8
  store ptr %dict, ptr %dict.addr, align 8
  %this1 = load ptr, ptr %this.addr, align 8
  %0 = load ptr, ptr %dict.addr, align 8
  call void @_ZN6icu_7510VectorizerC2EP10UHashtable(ptr noundef nonnull align 8 dereferenceable(16) %this1, ptr noundef %0)
  store ptr getelementptr inbounds ({ [5 x ptr] }, ptr @_ZTVN6icu_7525GraphemeClusterVectorizerE, i32 0, i32 0, i32 2), ptr %this1, align 8
  ret void
}

; Function Attrs: mustprogress uwtable
define linkonce_odr void @_ZN6icu_7520CodePointsVectorizerC2EP10UHashtable(ptr noundef nonnull align 8 dereferenceable(16) %this, ptr noundef %dict) unnamed_addr #1 comdat align 2 {
entry:
  %this.addr = alloca ptr, align 8
  %dict.addr = alloca ptr, align 8
  store ptr %this, ptr %this.addr, align 8
  store ptr %dict, ptr %dict.addr, align 8
  %this1 = load ptr, ptr %this.addr, align 8
  %0 = load ptr, ptr %dict.addr, align 8
  call void @_ZN6icu_7510VectorizerC2EP10UHashtable(ptr noundef nonnull align 8 dereferenceable(16) %this1, ptr noundef %0)
  store ptr getelementptr inbounds ({ [5 x ptr] }, ptr @_ZTVN6icu_7520CodePointsVectorizerE, i32 0, i32 0, i32 2), ptr %this1, align 8
  ret void
}

; Function Attrs: mustprogress nounwind uwtable
define internal noundef signext i8 @_ZL9U_FAILURE10UErrorCode(i32 noundef %code) #0 {
entry:
  %code.addr = alloca i32, align 4
  store i32 %code, ptr %code.addr, align 4
  %0 = load i32, ptr %code.addr, align 4
  %cmp = icmp sgt i32 %0, 0
  %conv = zext i1 %cmp to i8
  ret i8 %conv
}

; Function Attrs: mustprogress uwtable
define noundef ptr @_ZN6icu_7516createVectorizerEPKNS_8LSTMDataER10UErrorCode(ptr noundef %data, ptr noundef nonnull align 4 dereferenceable(4) %status) #1 personality ptr @__gxx_personality_v0 {
entry:
  %retval = alloca ptr, align 8
  %data.addr = alloca ptr, align 8
  %status.addr = alloca ptr, align 8
  %saved-rvalue = alloca ptr, align 8
  %cleanup.cond = alloca i1, align 1
  %exn.slot = alloca ptr, align 8
  %ehselector.slot = alloca i32, align 4
  %saved-rvalue6 = alloca ptr, align 8
  %cleanup.cond7 = alloca i1, align 1
  store ptr %data, ptr %data.addr, align 8
  store ptr %status, ptr %status.addr, align 8
  %0 = load ptr, ptr %status.addr, align 8
  %1 = load i32, ptr %0, align 4
  %call = call noundef signext i8 @_ZL9U_FAILURE10UErrorCode(i32 noundef %1)
  %tobool = icmp ne i8 %call, 0
  br i1 %tobool, label %if.then, label %if.end

if.then:                                          ; preds = %entry
  store ptr null, ptr %retval, align 8
  br label %return

if.end:                                           ; preds = %entry
  %2 = load ptr, ptr %data.addr, align 8
  %fType = getelementptr inbounds %"struct.icu_75::LSTMData", ptr %2, i32 0, i32 1
  %3 = load i32, ptr %fType, align 8
  switch i32 %3, label %sw.default [
    i32 1, label %sw.bb
    i32 2, label %sw.bb2
  ]

sw.bb:                                            ; preds = %if.end
  %call1 = call noundef ptr @_ZN6icu_757UMemorynwEm(i64 noundef 16) #12
  %new.isnull = icmp eq ptr %call1, null
  store i1 false, ptr %cleanup.cond, align 1
  br i1 %new.isnull, label %new.cont, label %new.notnull

new.notnull:                                      ; preds = %sw.bb
  store ptr %call1, ptr %saved-rvalue, align 8
  store i1 true, ptr %cleanup.cond, align 1
  %4 = load ptr, ptr %data.addr, align 8
  %fDict = getelementptr inbounds %"struct.icu_75::LSTMData", ptr %4, i32 0, i32 0
  %5 = load ptr, ptr %fDict, align 8
  invoke void @_ZN6icu_7520CodePointsVectorizerC2EP10UHashtable(ptr noundef nonnull align 8 dereferenceable(16) %call1, ptr noundef %5)
          to label %invoke.cont unwind label %lpad

invoke.cont:                                      ; preds = %new.notnull
  br label %new.cont

new.cont:                                         ; preds = %invoke.cont, %sw.bb
  %6 = phi ptr [ %call1, %invoke.cont ], [ null, %sw.bb ]
  store ptr %6, ptr %retval, align 8
  br label %return

lpad:                                             ; preds = %new.notnull
  %7 = landingpad { ptr, i32 }
          cleanup
  %8 = extractvalue { ptr, i32 } %7, 0
  store ptr %8, ptr %exn.slot, align 8
  %9 = extractvalue { ptr, i32 } %7, 1
  store i32 %9, ptr %ehselector.slot, align 4
  %cleanup.is_active = load i1, ptr %cleanup.cond, align 1
  br i1 %cleanup.is_active, label %cleanup.action, label %cleanup.done

cleanup.action:                                   ; preds = %lpad
  %10 = load ptr, ptr %saved-rvalue, align 8
  call void @_ZN6icu_757UMemorydlEPv(ptr noundef %10) #12
  br label %cleanup.done

cleanup.done:                                     ; preds = %cleanup.action, %lpad
  br label %eh.resume

sw.bb2:                                           ; preds = %if.end
  %call3 = call noundef ptr @_ZN6icu_757UMemorynwEm(i64 noundef 16) #12
  %new.isnull4 = icmp eq ptr %call3, null
  store i1 false, ptr %cleanup.cond7, align 1
  br i1 %new.isnull4, label %new.cont14, label %new.notnull5

new.notnull5:                                     ; preds = %sw.bb2
  store ptr %call3, ptr %saved-rvalue6, align 8
  store i1 true, ptr %cleanup.cond7, align 1
  %11 = load ptr, ptr %data.addr, align 8
  %fDict8 = getelementptr inbounds %"struct.icu_75::LSTMData", ptr %11, i32 0, i32 0
  %12 = load ptr, ptr %fDict8, align 8
  invoke void @_ZN6icu_7525GraphemeClusterVectorizerC2EP10UHashtable(ptr noundef nonnull align 8 dereferenceable(16) %call3, ptr noundef %12)
          to label %invoke.cont10 unwind label %lpad9

invoke.cont10:                                    ; preds = %new.notnull5
  br label %new.cont14

new.cont14:                                       ; preds = %invoke.cont10, %sw.bb2
  %13 = phi ptr [ %call3, %invoke.cont10 ], [ null, %sw.bb2 ]
  store ptr %13, ptr %retval, align 8
  br label %return

lpad9:                                            ; preds = %new.notnull5
  %14 = landingpad { ptr, i32 }
          cleanup
  %15 = extractvalue { ptr, i32 } %14, 0
  store ptr %15, ptr %exn.slot, align 8
  %16 = extractvalue { ptr, i32 } %14, 1
  store i32 %16, ptr %ehselector.slot, align 4
  %cleanup.is_active11 = load i1, ptr %cleanup.cond7, align 1
  br i1 %cleanup.is_active11, label %cleanup.action12, label %cleanup.done13

cleanup.action12:                                 ; preds = %lpad9
  %17 = load ptr, ptr %saved-rvalue6, align 8
  call void @_ZN6icu_757UMemorydlEPv(ptr noundef %17) #12
  br label %cleanup.done13

cleanup.done13:                                   ; preds = %cleanup.action12, %lpad9
  br label %eh.resume

sw.default:                                       ; preds = %if.end
  br label %sw.epilog

sw.epilog:                                        ; preds = %sw.default
  call void @abort() #14
  unreachable

return:                                           ; preds = %new.cont14, %new.cont, %if.then
  %18 = load ptr, ptr %retval, align 8
  ret ptr %18

eh.resume:                                        ; preds = %cleanup.done13, %cleanup.done
  %exn = load ptr, ptr %exn.slot, align 8
  %sel = load i32, ptr %ehselector.slot, align 4
  %lpad.val = insertvalue { ptr, i32 } poison, ptr %exn, 0
  %lpad.val15 = insertvalue { ptr, i32 } %lpad.val, i32 %sel, 1
  resume { ptr, i32 } %lpad.val15
}