; Function Attrs: mustprogress nounwind uwtable
define noundef ptr @_ZN6icu_7516createVectorizerEPKNS_8LSTMDataER10UErrorCode(ptr nocapture noundef readonly %data, ptr nocapture noundef nonnull readonly align 4 dereferenceable(4) %status) local_unnamed_addr #0 personality ptr @__gxx_personality_v0 {
entry:
  %0 = load i32, ptr %status, align 4
  %cmp.i = icmp slt i32 %0, 1
  br i1 %cmp.i, label %if.end, label %return

if.end:                                           ; preds = %entry
  %fType = getelementptr inbounds i8, ptr %data, i64 8
  %1 = load i32, ptr %fType, align 8
  switch i32 %1, label %sw.epilog [
    i32 1, label %sw.bb
    i32 2, label %sw.bb2
  ]

sw.bb:                                            ; preds = %if.end
  %call1 = tail call noundef ptr @_ZN6icu_757UMemorynwEm(i64 noundef 16) #20
  %new.isnull = icmp eq ptr %call1, null
  br i1 %new.isnull, label %return, label %new.notnull

new.notnull:                                      ; preds = %sw.bb
  %2 = load ptr, ptr %data, align 8
  %fDict.i.i = getelementptr inbounds i8, ptr %call1, i64 8
  store ptr %2, ptr %fDict.i.i, align 8
  store ptr getelementptr inbounds ({ [5 x ptr] }, ptr @_ZTVN6icu_7520CodePointsVectorizerE, i64 0, i32 0, i64 2), ptr %call1, align 8
  br label %return

sw.bb2:                                           ; preds = %if.end
  %call3 = tail call noundef ptr @_ZN6icu_757UMemorynwEm(i64 noundef 16) #20
  %new.isnull4 = icmp eq ptr %call3, null
  br i1 %new.isnull4, label %return, label %new.notnull5

new.notnull5:                                     ; preds = %sw.bb2
  %3 = load ptr, ptr %data, align 8
  %fDict.i.i3 = getelementptr inbounds i8, ptr %call3, i64 8
  store ptr %3, ptr %fDict.i.i3, align 8
  store ptr getelementptr inbounds ({ [5 x ptr] }, ptr @_ZTVN6icu_7525GraphemeClusterVectorizerE, i64 0, i32 0, i64 2), ptr %call3, align 8
  br label %return

sw.epilog:                                        ; preds = %if.end
  tail call void @abort() #22
  unreachable

return:                                           ; preds = %new.notnull, %sw.bb2, %new.notnull5, %sw.bb, %entry
  %retval.0 = phi ptr [ null, %entry ], [ null, %sw.bb ], [ %call1, %new.notnull ], [ %call3, %new.notnull5 ], [ null, %sw.bb2 ]
  ret ptr %retval.0
}